target datalayout = "e-m:e-p270:32:32-p271:32:32-p272:64:64-i64:64-i128:128-f80:128-n8:16:32:64-S128"
target triple = "x86_64-unknown-linux-gnu"

%"class.icu_75::Locale" = type <{ %"class.icu_75::UObject", [12 x i8], [6 x i8], [4 x i8], [2 x i8], i32, [4 x i8], ptr, [157 x i8], [3 x i8], ptr, i8, [7 x i8] }>
%"class.icu_75::UObject" = type { ptr }
%"class.icu_75::UnicodeString" = type { %"class.icu_75::Replaceable", %"union.icu_75::UnicodeString::StackBufferOrFields" }
%"class.icu_75::Replaceable" = type { %"class.icu_75::UObject" }
%"union.icu_75::UnicodeString::StackBufferOrFields" = type { %struct.anon.0, [32 x i8] }
%struct.anon.0 = type { i16, i32, i32, ptr }
%"class.icu_75::SimpleDateFormat" = type { %"class.icu_75::DateFormat", %"class.icu_75::UnicodeString", %"class.icu_75::UnicodeString", %"class.icu_75::UnicodeString", %"class.icu_75::Locale", ptr, ptr, double, i8, i8, i8, i32, ptr, ptr, i8, ptr }
%"class.icu_75::DateFormat" = type { %"class.icu_75::Format.base", ptr, ptr, %"class.icu_75::EnumSet", i32 }
%"class.icu_75::Format.base" = type <{ %"class.icu_75::UObject", [157 x i8], [157 x i8] }>
%"class.icu_75::EnumSet" = type { i32 }

@_ZTIN6icu_7510DateFormatE = external constant ptr
@_ZTIN6icu_7516SimpleDateFormatE = external constant ptr

; Function Attrs: mustprogress nounwind uwtable
define internal noundef signext i8 @_ZL9U_SUCCESS10UErrorCode(i32 noundef %code) #0 {
entry:
  %code.addr = alloca i32, align 4
  store i32 %code, ptr %code.addr, align 4
  %0 = load i32, ptr %code.addr, align 4
  %cmp = icmp sle i32 %0, 0
  %conv = zext i1 %cmp to i8
  ret i8 %conv
}

; Function Attrs: mustprogress nounwind uwtable
define linkonce_odr noundef double @_ZNK6icu_7516SimpleDateFormat18get2DigitYearStartER10UErrorCode(ptr noundef nonnull align 8 dereferenceable(832) %this, ptr noundef nonnull align 4 dereferenceable(4) %0) #0 comdat align 2 {
entry:
  %this.addr = alloca ptr, align 8
  %.addr = alloca ptr, align 8
  store ptr %this, ptr %this.addr, align 8
  store ptr %0, ptr %.addr, align 8
  %this1 = load ptr, ptr %this.addr, align 8
  %fDefaultCenturyStart = getelementptr inbounds %"class.icu_75::SimpleDateFormat", ptr %this1, i32 0, i32 7
  %1 = load double, ptr %fDefaultCenturyStart, align 8
  ret double %1
}

; Function Attrs: mustprogress nounwind uwtable
define internal noundef signext i8 @_ZL9U_FAILURE10UErrorCode(i32 noundef %code) #0 {
entry:
  %code.addr = alloca i32, align 4
  store i32 %code, ptr %code.addr, align 4
  %0 = load i32, ptr %code.addr, align 4
  %cmp = icmp sgt i32 %0, 0
  %conv = zext i1 %cmp to i8
  ret i8 %conv
}

; Function Attrs: mustprogress uwtable
define internal void @_ZL24verifyIsSimpleDateFormatPKPvP10UErrorCode(ptr noundef %fmt, ptr noundef %status) #1 {
entry:
  %fmt.addr = alloca ptr, align 8
  %status.addr = alloca ptr, align 8
  store ptr %fmt, ptr %fmt.addr, align 8
  store ptr %status, ptr %status.addr, align 8
  %0 = load ptr, ptr %status.addr, align 8
  %1 = load i32, ptr %0, align 4
  %call = call noundef signext i8 @_ZL9U_SUCCESS10UErrorCode(i32 noundef %1)
  %tobool = icmp ne i8 %call, 0
  br i1 %tobool, label %land.lhs.true, label %if.end

land.lhs.true:                                    ; preds = %entry
  %2 = load ptr, ptr %fmt.addr, align 8
  %3 = icmp eq ptr %2, null
  br i1 %3, label %dynamic_cast.null, label %dynamic_cast.notnull

dynamic_cast.notnull:                             ; preds = %land.lhs.true
  %4 = call ptr @__dynamic_cast(ptr %2, ptr @_ZTIN6icu_7510DateFormatE, ptr @_ZTIN6icu_7516SimpleDateFormatE, i64 0) #6
  br label %dynamic_cast.end

dynamic_cast.null:                                ; preds = %land.lhs.true
  br label %dynamic_cast.end

dynamic_cast.end:                                 ; preds = %dynamic_cast.null, %dynamic_cast.notnull
  %5 = phi ptr [ %4, %dynamic_cast.notnull ], [ null, %dynamic_cast.null ]
  %cmp = icmp eq ptr %5, null
  br i1 %cmp, label %if.then, label %if.end

if.then:                                          ; preds = %dynamic_cast.end
  %6 = load ptr, ptr %status.addr, align 8
  store i32 1, ptr %6, align 4
  br label %if.end

if.end:                                           ; preds = %if.then, %dynamic_cast.end, %entry
  ret void
}

; Function Attrs: mustprogress uwtable
define double @udat_get2DigitYearStart_75(ptr noundef %fmt, ptr noundef %status) #1 {
entry:
  %retval = alloca double, align 8
  %fmt.addr = alloca ptr, align 8
  %status.addr = alloca ptr, align 8
  store ptr %fmt, ptr %fmt.addr, align 8
  store ptr %status, ptr %status.addr, align 8
  %0 = load ptr, ptr %fmt.addr, align 8
  %1 = load ptr, ptr %status.addr, align 8
  call void @_ZL24verifyIsSimpleDateFormatPKPvP10UErrorCode(ptr noundef %0, ptr noundef %1)
  %2 = load ptr, ptr %status.addr, align 8
  %3 = load i32, ptr %2, align 4
  %call = call noundef signext i8 @_ZL9U_FAILURE10UErrorCode(i32 noundef %3)
  %tobool = icmp ne i8 %call, 0
  br i1 %tobool, label %if.then, label %if.end

if.then:                                          ; preds = %entry
  store double 0.000000e+00, ptr %retval, align 8
  br label %return

if.end:                                           ; preds = %entry
  %4 = load ptr, ptr %fmt.addr, align 8
  %5 = load ptr, ptr %status.addr, align 8
  %call1 = call noundef double @_ZNK6icu_7516SimpleDateFormat18get2DigitYearStartER10UErrorCode(ptr noundef nonnull align 8 dereferenceable(832) %4, ptr noundef nonnull align 4 dereferenceable(4) %5)
  store double %call1, ptr %retval, align 8
  br label %return

return:                                           ; preds = %if.end, %if.then
  %6 = load double, ptr %retval, align 8
  ret double %6
}