; Function Attrs: mustprogress nofree nounwind memory(read, argmem: readwrite) uwtable
define double @udat_get2DigitYearStart_75(ptr noundef readonly %fmt, ptr nocapture noundef %status) local_unnamed_addr #5 {
entry:
  %0 = load i32, ptr %status, align 4
  %cmp.i.i = icmp sgt i32 %0, 0
  br i1 %cmp.i.i, label %return, label %land.lhs.true.i

land.lhs.true.i:                                  ; preds = %entry
  %1 = icmp eq ptr %fmt, null
  br i1 %1, label %if.then.i, label %dynamic_cast.notnull.i

dynamic_cast.notnull.i:                           ; preds = %land.lhs.true.i
  %2 = tail call ptr @__dynamic_cast(ptr nonnull %fmt, ptr nonnull @_ZTIN6icu_7510DateFormatE, ptr nonnull @_ZTIN6icu_7516SimpleDateFormatE, i64 0) #7
  %3 = icmp eq ptr %2, null
  br i1 %3, label %if.then.i, label %if.end

if.then.i:                                        ; preds = %dynamic_cast.notnull.i, %land.lhs.true.i
  store i32 1, ptr %status, align 4
  br label %return

if.end:                                           ; preds = %dynamic_cast.notnull.i
  %fDefaultCenturyStart.i = getelementptr inbounds i8, ptr %fmt, i64 784
  %4 = load double, ptr %fDefaultCenturyStart.i, align 8
  br label %return

return:                                           ; preds = %if.then.i, %entry, %if.end
  %retval.0 = phi double [ %4, %if.end ], [ 0.000000e+00, %entry ], [ 0.000000e+00, %if.then.i ]
  ret double %retval.0
}